target datalayout = "e-m:e-p270:32:32-p271:32:32-p272:64:64-i64:64-i128:128-f80:128-n8:16:32:64-S128"
target triple = "x86_64-pc-linux-gnu"

%"class.casadi::SXElem" = type { ptr }
%"class.casadi::SXNode" = type { ptr, i32, i32 }

; Function Attrs: mustprogress nounwind uwtable
define noundef nonnull align 8 dereferenceable(8) ptr @_ZN6casadi6SXElemaSERKS0_(ptr noundef nonnull align 8 dereferenceable(8) %0, ptr noundef nonnull align 8 dereferenceable(8) %1) #4 align 2 {
  %3 = alloca ptr, align 8
  %4 = alloca ptr, align 8
  %5 = alloca ptr, align 8
  store ptr %0, ptr %4, align 8
  store ptr %1, ptr %5, align 8
  %6 = load ptr, ptr %4, align 8
  %7 = getelementptr inbounds %"class.casadi::SXElem", ptr %6, i32 0, i32 0
  %8 = load ptr, ptr %7, align 8
  %9 = load ptr, ptr %5, align 8
  %10 = getelementptr inbounds %"class.casadi::SXElem", ptr %9, i32 0, i32 0
  %11 = load ptr, ptr %10, align 8
  %12 = icmp eq ptr %8, %11
  br i1 %12, label %13, label %14

13:                                               ; preds = %2
  store ptr %6, ptr %3, align 8
  br label %40

14:                                               ; preds = %2
  %15 = getelementptr inbounds %"class.casadi::SXElem", ptr %6, i32 0, i32 0
  %16 = load ptr, ptr %15, align 8
  %17 = getelementptr inbounds %"class.casadi::SXNode", ptr %16, i32 0, i32 2
  %18 = load i32, ptr %17, align 4
  %19 = add i32 %18, -1
  store i32 %19, ptr %17, align 4
  %20 = icmp eq i32 %19, 0
  br i1 %20, label %21, label %30

21:                                               ; preds = %14
  %22 = getelementptr inbounds %"class.casadi::SXElem", ptr %6, i32 0, i32 0
  %23 = load ptr, ptr %22, align 8
  %24 = icmp eq ptr %23, null
  br i1 %24, label %29, label %25

25:                                               ; preds = %21
  %26 = load ptr, ptr %23, align 8
  %27 = getelementptr inbounds ptr, ptr %26, i64 1
  %28 = load ptr, ptr %27, align 8
  call void %28(ptr noundef nonnull align 8 dereferenceable(16) %23) #3
  br label %29

29:                                               ; preds = %25, %21
  br label %30

30:                                               ; preds = %29, %14
  %31 = load ptr, ptr %5, align 8
  %32 = getelementptr inbounds %"class.casadi::SXElem", ptr %31, i32 0, i32 0
  %33 = load ptr, ptr %32, align 8
  %34 = getelementptr inbounds %"class.casadi::SXElem", ptr %6, i32 0, i32 0
  store ptr %33, ptr %34, align 8
  %35 = getelementptr inbounds %"class.casadi::SXElem", ptr %6, i32 0, i32 0
  %36 = load ptr, ptr %35, align 8
  %37 = getelementptr inbounds %"class.casadi::SXNode", ptr %36, i32 0, i32 2
  %38 = load i32, ptr %37, align 4
  %39 = add i32 %38, 1
  store i32 %39, ptr %37, align 4
  store ptr %6, ptr %3, align 8
  br label %40

40:                                               ; preds = %30, %13
  %41 = load ptr, ptr %3, align 8
  ret ptr %41
}